target datalayout = "e-m:e-p270:32:32-p271:32:32-p272:64:64-i64:64-i128:128-f80:128-n8:16:32:64-S128"
target triple = "x86_64-pc-linux-gnu"

%struct.wc_Sha512 = type { [8 x i64], [16 x i64], i32, i64, i64, ptr }

; Function Attrs: nounwind uwtable
define internal i32 @InitSha384(ptr noundef %0) #0 {
  %2 = alloca i32, align 4
  %3 = alloca ptr, align 8
  store ptr %0, ptr %3, align 8, !tbaa !3
  %4 = load ptr, ptr %3, align 8, !tbaa !3
  %5 = icmp eq ptr %4, null
  br i1 %5, label %6, label %7

6:                                                ; preds = %1
  store i32 -173, ptr %2, align 4
  br label %38

7:                                                ; preds = %1
  %8 = load ptr, ptr %3, align 8, !tbaa !3
  %9 = getelementptr inbounds nuw %struct.wc_Sha512, ptr %8, i32 0, i32 0
  %10 = getelementptr inbounds [8 x i64], ptr %9, i64 0, i64 0
  store i64 -3766243637369397544, ptr %10, align 8, !tbaa !14
  %11 = load ptr, ptr %3, align 8, !tbaa !3
  %12 = getelementptr inbounds nuw %struct.wc_Sha512, ptr %11, i32 0, i32 0
  %13 = getelementptr inbounds [8 x i64], ptr %12, i64 0, i64 1
  store i64 7105036623409894663, ptr %13, align 8, !tbaa !14
  %14 = load ptr, ptr %3, align 8, !tbaa !3
  %15 = getelementptr inbounds nuw %struct.wc_Sha512, ptr %14, i32 0, i32 0
  %16 = getelementptr inbounds [8 x i64], ptr %15, i64 0, i64 2
  store i64 -7973340178411365097, ptr %16, align 8, !tbaa !14
  %17 = load ptr, ptr %3, align 8, !tbaa !3
  %18 = getelementptr inbounds nuw %struct.wc_Sha512, ptr %17, i32 0, i32 0
  %19 = getelementptr inbounds [8 x i64], ptr %18, i64 0, i64 3
  store i64 1526699215303891257, ptr %19, align 8, !tbaa !14
  %20 = load ptr, ptr %3, align 8, !tbaa !3
  %21 = getelementptr inbounds nuw %struct.wc_Sha512, ptr %20, i32 0, i32 0
  %22 = getelementptr inbounds [8 x i64], ptr %21, i64 0, i64 4
  store i64 7436329637833083697, ptr %22, align 8, !tbaa !14
  %23 = load ptr, ptr %3, align 8, !tbaa !3
  %24 = getelementptr inbounds nuw %struct.wc_Sha512, ptr %23, i32 0, i32 0
  %25 = getelementptr inbounds [8 x i64], ptr %24, i64 0, i64 5
  store i64 -8163818279084223215, ptr %25, align 8, !tbaa !14
  %26 = load ptr, ptr %3, align 8, !tbaa !3
  %27 = getelementptr inbounds nuw %struct.wc_Sha512, ptr %26, i32 0, i32 0
  %28 = getelementptr inbounds [8 x i64], ptr %27, i64 0, i64 6
  store i64 -2662702644619276377, ptr %28, align 8, !tbaa !14
  %29 = load ptr, ptr %3, align 8, !tbaa !3
  %30 = getelementptr inbounds nuw %struct.wc_Sha512, ptr %29, i32 0, i32 0
  %31 = getelementptr inbounds [8 x i64], ptr %30, i64 0, i64 7
  store i64 5167115440072839076, ptr %31, align 8, !tbaa !14
  %32 = load ptr, ptr %3, align 8, !tbaa !3
  %33 = getelementptr inbounds nuw %struct.wc_Sha512, ptr %32, i32 0, i32 2
  store i32 0, ptr %33, align 8, !tbaa !15
  %34 = load ptr, ptr %3, align 8, !tbaa !3
  %35 = getelementptr inbounds nuw %struct.wc_Sha512, ptr %34, i32 0, i32 3
  store i64 0, ptr %35, align 8, !tbaa !16
  %36 = load ptr, ptr %3, align 8, !tbaa !3
  %37 = getelementptr inbounds nuw %struct.wc_Sha512, ptr %36, i32 0, i32 4
  store i64 0, ptr %37, align 8, !tbaa !17
  store i32 0, ptr %2, align 4
  br label %38

38:                                               ; preds = %7, %6
  %39 = load i32, ptr %2, align 4
  ret i32 %39
}

; Function Attrs: nounwind uwtable
define i32 @wc_InitSha384_ex(ptr noundef %0, ptr noundef %1, i32 noundef %2) #0 {
  %4 = alloca i32, align 4
  %5 = alloca ptr, align 8
  %6 = alloca ptr, align 8
  %7 = alloca i32, align 4
  %8 = alloca i32, align 4
  %9 = alloca i32, align 4
  store ptr %0, ptr %5, align 8, !tbaa !3
  store ptr %1, ptr %6, align 8, !tbaa !8
  store i32 %2, ptr %7, align 4, !tbaa !9
  call void @llvm.lifetime.start.p0(i64 4, ptr %8) #5
  %10 = load ptr, ptr %5, align 8, !tbaa !3
  %11 = icmp eq ptr %10, null
  br i1 %11, label %12, label %13

12:                                               ; preds = %3
  store i32 -173, ptr %4, align 4
  store i32 1, ptr %9, align 4
  br label %25

13:                                               ; preds = %3
  %14 = load ptr, ptr %6, align 8, !tbaa !8
  %15 = load ptr, ptr %5, align 8, !tbaa !3
  %16 = getelementptr inbounds nuw %struct.wc_Sha512, ptr %15, i32 0, i32 5
  store ptr %14, ptr %16, align 8, !tbaa !11
  %17 = load ptr, ptr %5, align 8, !tbaa !3
  %18 = call i32 @InitSha384(ptr noundef %17)
  store i32 %18, ptr %8, align 4, !tbaa !9
  %19 = load i32, ptr %8, align 4, !tbaa !9
  %20 = icmp ne i32 %19, 0
  br i1 %20, label %21, label %23

21:                                               ; preds = %13
  %22 = load i32, ptr %8, align 4, !tbaa !9
  store i32 %22, ptr %4, align 4
  store i32 1, ptr %9, align 4
  br label %25

23:                                               ; preds = %13
  %24 = load i32, ptr %8, align 4, !tbaa !9
  store i32 %24, ptr %4, align 4
  store i32 1, ptr %9, align 4
  br label %25

25:                                               ; preds = %23, %21, %12
  call void @llvm.lifetime.end.p0(i64 4, ptr %8) #5
  %26 = load i32, ptr %4, align 4
  ret i32 %26
}

; Function Attrs: nounwind uwtable
define i32 @wc_InitSha384(ptr noundef %0) #0 {
  %2 = alloca ptr, align 8
  %3 = alloca i32, align 4
  store ptr %0, ptr %2, align 8, !tbaa !3
  call void @llvm.lifetime.start.p0(i64 4, ptr %3) #5
  store i32 -2, ptr %3, align 4, !tbaa !9
  %4 = load ptr, ptr %2, align 8, !tbaa !3
  %5 = load i32, ptr %3, align 4, !tbaa !9
  %6 = call i32 @wc_InitSha384_ex(ptr noundef %4, ptr noundef null, i32 noundef %5)
  call void @llvm.lifetime.end.p0(i64 4, ptr %3) #5
  ret i32 %6
}