; Function Attrs: mustprogress nofree norecurse nosync nounwind willreturn memory(argmem: write) uwtable
define range(i32 -173, 1) i32 @wc_InitSha384(ptr noundef writeonly captures(address_is_null) %0) local_unnamed_addr #0 {
  %2 = icmp eq ptr %0, null
  br i1 %2, label %wc_InitSha384_ex.exit, label %3

3:                                                ; preds = %1
  %4 = getelementptr inbounds nuw i8, ptr %0, i64 216
  store ptr null, ptr %4, align 8, !tbaa !3
  store i64 -3766243637369397544, ptr %0, align 8, !tbaa !10
  %5 = getelementptr inbounds nuw i8, ptr %0, i64 8
  store i64 7105036623409894663, ptr %5, align 8, !tbaa !10
  %6 = getelementptr inbounds nuw i8, ptr %0, i64 16
  store i64 -7973340178411365097, ptr %6, align 8, !tbaa !10
  %7 = getelementptr inbounds nuw i8, ptr %0, i64 24
  store i64 1526699215303891257, ptr %7, align 8, !tbaa !10
  %8 = getelementptr inbounds nuw i8, ptr %0, i64 32
  store i64 7436329637833083697, ptr %8, align 8, !tbaa !10
  %9 = getelementptr inbounds nuw i8, ptr %0, i64 40
  store i64 -8163818279084223215, ptr %9, align 8, !tbaa !10
  %10 = getelementptr inbounds nuw i8, ptr %0, i64 48
  store i64 -2662702644619276377, ptr %10, align 8, !tbaa !10
  %11 = getelementptr inbounds nuw i8, ptr %0, i64 56
  store i64 5167115440072839076, ptr %11, align 8, !tbaa !10
  %12 = getelementptr inbounds nuw i8, ptr %0, i64 192
  store i32 0, ptr %12, align 8, !tbaa !11
  %13 = getelementptr inbounds nuw i8, ptr %0, i64 200
  tail call void @llvm.memset.p0.i64(ptr noundef nonnull align 8 dereferenceable(16) %13, i8 0, i64 16, i1 false)
  br label %wc_InitSha384_ex.exit

wc_InitSha384_ex.exit:                            ; preds = %1, %3
  %.0.i = phi i32 [ 0, %3 ], [ -173, %1 ]
  ret i32 %.0.i
}